target datalayout = "e-m:e-p270:32:32-p271:32:32-p272:64:64-i64:64-i128:128-f80:128-n8:16:32:64-S128"
target triple = "x86_64-pc-linux-gnu"

%"class.icu_77::MaybeStackArray" = type <{ ptr, i32, i8, [40 x i8], [3 x i8] }>
%"struct.icu_77::(anonymous namespace)::DayPeriodRulesData" = type <{ ptr, ptr, i32, [4 x i8] }>
%"class.icu_77::CharString" = type { %"class.icu_77::MaybeStackArray", i32, [4 x i8] }
%"class.icu_77::DayPeriodRules" = type { i8, i8, [24 x i32] }
%"struct.icu_77::UInitOnce" = type { %"struct.std::atomic", i32 }
%"struct.std::atomic" = type { %"struct.std::__atomic_base" }
%"struct.std::__atomic_base" = type { i32 }

@_ZN6icu_7712_GLOBAL__N_14dataE = internal global ptr null, align 8
@.str.3 = private unnamed_addr constant [5 x i8] c"root\00", align 1
@_ZN6icu_7712_GLOBAL__N_18initOnceE = internal global { { i32 }, i32 } zeroinitializer, align 4
@_ZN6icu_7715MaybeStackArrayIcLi40EED1Ev = weak_odr unnamed_addr alias void (ptr), ptr @_ZN6icu_7715MaybeStackArrayIcLi40EED2Ev

; Function Attrs: noinline noreturn nounwind uwtable
define linkonce_odr hidden void @__clang_call_terminate(ptr noundef %0) #4 comdat {
  %2 = call ptr @__cxa_begin_catch(ptr %0) #13
  call void @_ZSt9terminatev() #15
  unreachable
}

; Function Attrs: mustprogress nounwind uwtable
define linkonce_odr noundef i32 @_ZStanSt12memory_orderSt23__memory_order_modifier(i32 noundef %0, i32 noundef %1) #0 comdat {
  %3 = alloca i32, align 4
  %4 = alloca i32, align 4
  store i32 %0, ptr %3, align 4, !tbaa !89
  store i32 %1, ptr %4, align 4, !tbaa !91
  %5 = load i32, ptr %3, align 4, !tbaa !89
  %6 = load i32, ptr %4, align 4, !tbaa !91
  %7 = and i32 %5, %6
  ret i32 %7
}

; Function Attrs: alwaysinline mustprogress nounwind uwtable
define linkonce_odr noundef i32 @_ZNKSt13__atomic_baseIiE4loadESt12memory_order(ptr noundef nonnull align 4 dereferenceable(4) %0, i32 noundef %1) #11 comdat align 2 personality ptr @__gxx_personality_v0 {
  %3 = alloca ptr, align 8
  %4 = alloca i32, align 4
  %5 = alloca i32, align 4
  %6 = alloca i32, align 4
  store ptr %0, ptr %3, align 8, !tbaa !87
  store i32 %1, ptr %4, align 4, !tbaa !89
  %7 = load ptr, ptr %3, align 8
  call void @llvm.lifetime.start.p0(i64 4, ptr %5) #13
  %8 = load i32, ptr %4, align 4, !tbaa !89
  %9 = invoke noundef i32 @_ZStanSt12memory_orderSt23__memory_order_modifier(i32 noundef %8, i32 noundef 65535)
          to label %10 unwind label %27

10:                                               ; preds = %2
  store i32 %9, ptr %5, align 4, !tbaa !89
  br label %11

11:                                               ; preds = %10
  br label %12

12:                                               ; preds = %11
  br label %13

13:                                               ; preds = %12
  br label %14

14:                                               ; preds = %13
  br label %15

15:                                               ; preds = %14
  br label %16

16:                                               ; preds = %15
  %17 = getelementptr inbounds nuw %"struct.std::__atomic_base", ptr %7, i32 0, i32 0
  %18 = load i32, ptr %4, align 4, !tbaa !89
  switch i32 %18, label %19 [
    i32 1, label %21
    i32 2, label %21
    i32 5, label %23
  ]

19:                                               ; preds = %16
  %20 = load atomic i32, ptr %17 monotonic, align 4
  store i32 %20, ptr %6, align 4
  br label %25

21:                                               ; preds = %16, %16
  %22 = load atomic i32, ptr %17 acquire, align 4
  store i32 %22, ptr %6, align 4
  br label %25

23:                                               ; preds = %16
  %24 = load atomic i32, ptr %17 seq_cst, align 4
  store i32 %24, ptr %6, align 4
  br label %25

25:                                               ; preds = %23, %21, %19
  %26 = load i32, ptr %6, align 4, !tbaa !14
  call void @llvm.lifetime.end.p0(i64 4, ptr %5) #13
  ret i32 %26

27:                                               ; preds = %2
  %28 = landingpad { ptr, i32 }
          catch ptr null
  %29 = extractvalue { ptr, i32 } %28, 0
  call void @__clang_call_terminate(ptr %29) #15
  unreachable
}

; Function Attrs: inlinehint mustprogress nounwind uwtable
define linkonce_odr noundef i32 @_ZN6icu_7716umtx_loadAcquireERSt6atomicIiE(ptr noundef nonnull align 4 dereferenceable(4) %0) #2 comdat {
  %2 = alloca ptr, align 8
  store ptr %0, ptr %2, align 8, !tbaa !85
  %3 = load ptr, ptr %2, align 8, !tbaa !85
  %4 = call noundef i32 @_ZNKSt13__atomic_baseIiE4loadESt12memory_order(ptr noundef nonnull align 4 dereferenceable(4) %3, i32 noundef 2) #13
  ret i32 %4
}

; Function Attrs: mustprogress nounwind uwtable
define linkonce_odr noundef i32 @_ZNK6icu_7714DayPeriodRules19getDayPeriodForHourEi(ptr noundef nonnull align 4 dereferenceable(100) %0, i32 noundef %1) #0 comdat align 2 {
  %3 = alloca ptr, align 8
  %4 = alloca i32, align 4
  store ptr %0, ptr %3, align 8, !tbaa !61
  store i32 %1, ptr %4, align 4, !tbaa !14
  %5 = load ptr, ptr %3, align 8
  %6 = getelementptr inbounds nuw %"class.icu_77::DayPeriodRules", ptr %5, i32 0, i32 2
  %7 = load i32, ptr %4, align 4, !tbaa !14
  %8 = sext i32 %7 to i64
  %9 = getelementptr inbounds [24 x i32], ptr %6, i64 0, i64 %8
  %10 = load i32, ptr %9, align 4, !tbaa !62
  ret i32 %10
}

; Function Attrs: mustprogress nounwind uwtable
define linkonce_odr void @_ZN6icu_7710CharStringD2Ev(ptr noundef nonnull align 8 dereferenceable(60) %0) unnamed_addr #0 comdat align 2 {
  %2 = alloca ptr, align 8
  store ptr %0, ptr %2, align 8, !tbaa !57
  %3 = load ptr, ptr %2, align 8
  %4 = getelementptr inbounds nuw %"class.icu_77::CharString", ptr %3, i32 0, i32 0
  call void @_ZN6icu_7715MaybeStackArrayIcLi40EED1Ev(ptr noundef nonnull align 8 dereferenceable(53) %4) #13
  ret void
}

; Function Attrs: mustprogress nounwind uwtable
define linkonce_odr noundef signext i8 @_ZNK6icu_7710CharString7isEmptyEv(ptr noundef nonnull align 8 dereferenceable(60) %0) #0 comdat align 2 {
  %2 = alloca ptr, align 8
  store ptr %0, ptr %2, align 8, !tbaa !57
  %3 = load ptr, ptr %2, align 8
  %4 = getelementptr inbounds nuw %"class.icu_77::CharString", ptr %3, i32 0, i32 1
  %5 = load i32, ptr %4, align 8, !tbaa !59
  %6 = icmp eq i32 %5, 0
  %7 = zext i1 %6 to i8
  ret i8 %7
}

; Function Attrs: inlinehint mustprogress nounwind uwtable
define internal noundef signext i8 @_ZL9U_FAILURE10UErrorCode(i32 noundef %0) #2 {
  %2 = alloca i32, align 4
  store i32 %0, ptr %2, align 4, !tbaa !15
  %3 = load i32, ptr %2, align 4, !tbaa !15
  %4 = icmp sgt i32 %3, 0
  %5 = zext i1 %4 to i8
  ret i8 %5
}

; Function Attrs: inlinehint mustprogress uwtable
define linkonce_odr void @_ZN6icu_7713umtx_initOnceERNS_9UInitOnceEPFvR10UErrorCodeES3_(ptr noundef nonnull align 4 dereferenceable(8) %0, ptr noundef %1, ptr noundef nonnull align 4 dereferenceable(4) %2) #3 comdat {
  %4 = alloca ptr, align 8
  %5 = alloca ptr, align 8
  %6 = alloca ptr, align 8
  store ptr %0, ptr %4, align 8, !tbaa !51
  store ptr %1, ptr %5, align 8, !tbaa !22
  store ptr %2, ptr %6, align 8, !tbaa !22
  %7 = load ptr, ptr %6, align 8, !tbaa !22
  %8 = load i32, ptr %7, align 4, !tbaa !15
  %9 = call noundef signext i8 @_ZL9U_FAILURE10UErrorCode(i32 noundef %8)
  %10 = icmp ne i8 %9, 0
  br i1 %10, label %11, label %12

11:                                               ; preds = %3
  br label %41

12:                                               ; preds = %3
  %13 = load ptr, ptr %4, align 8, !tbaa !51
  %14 = getelementptr inbounds nuw %"struct.icu_77::UInitOnce", ptr %13, i32 0, i32 0
  %15 = call noundef i32 @_ZN6icu_7716umtx_loadAcquireERSt6atomicIiE(ptr noundef nonnull align 4 dereferenceable(4) %14)
  %16 = icmp ne i32 %15, 2
  br i1 %16, label %17, label %29

17:                                               ; preds = %12
  %18 = load ptr, ptr %4, align 8, !tbaa !51
  %19 = call noundef signext i8 @_ZN6icu_7720umtx_initImplPreInitERNS_9UInitOnceE(ptr noundef nonnull align 4 dereferenceable(8) %18)
  %20 = icmp ne i8 %19, 0
  br i1 %20, label %21, label %29

21:                                               ; preds = %17
  %22 = load ptr, ptr %5, align 8, !tbaa !22
  %23 = load ptr, ptr %6, align 8, !tbaa !22
  call void %22(ptr noundef nonnull align 4 dereferenceable(4) %23)
  %24 = load ptr, ptr %6, align 8, !tbaa !22
  %25 = load i32, ptr %24, align 4, !tbaa !15
  %26 = load ptr, ptr %4, align 8, !tbaa !51
  %27 = getelementptr inbounds nuw %"struct.icu_77::UInitOnce", ptr %26, i32 0, i32 1
  store i32 %25, ptr %27, align 4, !tbaa !53
  %28 = load ptr, ptr %4, align 8, !tbaa !51
  call void @_ZN6icu_7721umtx_initImplPostInitERNS_9UInitOnceE(ptr noundef nonnull align 4 dereferenceable(8) %28)
  br label %41

29:                                               ; preds = %17, %12
  %30 = load ptr, ptr %4, align 8, !tbaa !51
  %31 = getelementptr inbounds nuw %"struct.icu_77::UInitOnce", ptr %30, i32 0, i32 1
  %32 = load i32, ptr %31, align 4, !tbaa !53
  %33 = call noundef signext i8 @_ZL9U_FAILURE10UErrorCode(i32 noundef %32)
  %34 = icmp ne i8 %33, 0
  br i1 %34, label %35, label %40

35:                                               ; preds = %29
  %36 = load ptr, ptr %4, align 8, !tbaa !51
  %37 = getelementptr inbounds nuw %"struct.icu_77::UInitOnce", ptr %36, i32 0, i32 1
  %38 = load i32, ptr %37, align 4, !tbaa !53
  %39 = load ptr, ptr %6, align 8, !tbaa !22
  store i32 %38, ptr %39, align 4, !tbaa !15
  br label %40

40:                                               ; preds = %35, %29
  br label %41

41:                                               ; preds = %11, %40, %21
  ret void
}

; Function Attrs: mustprogress uwtable
define noundef ptr @_ZN6icu_7714DayPeriodRules11getInstanceERKNS_6LocaleER10UErrorCode(ptr noundef nonnull align 8 dereferenceable(217) %0, ptr noundef nonnull align 4 dereferenceable(4) %1) #1 align 2 personality ptr @__gxx_personality_v0 {
  %3 = alloca ptr, align 8
  %4 = alloca ptr, align 8
  %5 = alloca ptr, align 8
  %6 = alloca ptr, align 8
  %7 = alloca [157 x i8], align 16
  %8 = alloca i32, align 4
  %9 = alloca i32, align 4
  %10 = alloca %"class.icu_77::CharString", align 8
  %11 = alloca ptr, align 8
  %12 = alloca i32, align 4
  store ptr %0, ptr %4, align 8, !tbaa !47
  store ptr %1, ptr %5, align 8, !tbaa !22
  %13 = load ptr, ptr %5, align 8, !tbaa !22
  call void @_ZN6icu_7713umtx_initOnceERNS_9UInitOnceEPFvR10UErrorCodeES3_(ptr noundef nonnull align 4 dereferenceable(8) @_ZN6icu_7712_GLOBAL__N_18initOnceE, ptr noundef @_ZN6icu_7714DayPeriodRules4loadER10UErrorCode, ptr noundef nonnull align 4 dereferenceable(4) %13)
  %14 = load ptr, ptr %5, align 8, !tbaa !22
  %15 = load i32, ptr %14, align 4, !tbaa !15
  %16 = call noundef signext i8 @_ZL9U_FAILURE10UErrorCode(i32 noundef %15)
  %17 = icmp ne i8 %16, 0
  br i1 %17, label %18, label %19

18:                                               ; preds = %2
  store ptr null, ptr %3, align 8
  br label %96

19:                                               ; preds = %2
  call void @llvm.lifetime.start.p0(i64 8, ptr %6) #13
  %20 = load ptr, ptr %4, align 8, !tbaa !47
  %21 = call noundef ptr @_ZNK6icu_776Locale11getBaseNameEv(ptr noundef nonnull align 8 dereferenceable(217) %20)
  store ptr %21, ptr %6, align 8, !tbaa !17
  call void @llvm.lifetime.start.p0(i64 157, ptr %7) #13
  %22 = load ptr, ptr %6, align 8, !tbaa !17
  %23 = call i64 @strlen(ptr noundef %22) #16
  %24 = icmp ult i64 %23, 157
  br i1 %24, label %25, label %37

25:                                               ; preds = %19
  %26 = getelementptr inbounds [157 x i8], ptr %7, i64 0, i64 0
  %27 = load ptr, ptr %6, align 8, !tbaa !17
  %28 = call ptr @strcpy(ptr noundef %26, ptr noundef %27) #13
  %29 = getelementptr inbounds [157 x i8], ptr %7, i64 0, i64 0
  %30 = load i8, ptr %29, align 16, !tbaa !49
  %31 = sext i8 %30 to i32
  %32 = icmp eq i32 %31, 0
  br i1 %32, label %33, label %36

33:                                               ; preds = %25
  %34 = getelementptr inbounds [157 x i8], ptr %7, i64 0, i64 0
  %35 = call ptr @strcpy(ptr noundef %34, ptr noundef @.str.3) #13
  br label %36

36:                                               ; preds = %33, %25
  br label %39

37:                                               ; preds = %19
  %38 = load ptr, ptr %5, align 8, !tbaa !22
  store i32 15, ptr %38, align 4, !tbaa !15
  store ptr null, ptr %3, align 8
  store i32 1, ptr %8, align 4
  br label %95

39:                                               ; preds = %36
  call void @llvm.lifetime.start.p0(i64 4, ptr %9) #13
  store i32 0, ptr %9, align 4, !tbaa !14
  br label %40

40:                                               ; preds = %73, %39
  %41 = getelementptr inbounds [157 x i8], ptr %7, i64 0, i64 0
  %42 = load i8, ptr %41, align 16, !tbaa !49
  %43 = sext i8 %42 to i32
  %44 = icmp ne i32 %43, 0
  br i1 %44, label %45, label %74

45:                                               ; preds = %40
  %46 = load ptr, ptr @_ZN6icu_7712_GLOBAL__N_14dataE, align 8, !tbaa !27
  %47 = getelementptr inbounds nuw %"struct.icu_77::(anonymous namespace)::DayPeriodRulesData", ptr %46, i32 0, i32 0
  %48 = load ptr, ptr %47, align 8, !tbaa !33
  %49 = getelementptr inbounds [157 x i8], ptr %7, i64 0, i64 0
  %50 = call i32 @uhash_geti_77(ptr noundef %48, ptr noundef %49)
  store i32 %50, ptr %9, align 4, !tbaa !14
  %51 = load i32, ptr %9, align 4, !tbaa !14
  %52 = icmp eq i32 %51, 0
  br i1 %52, label %53, label %72

53:                                               ; preds = %45
  call void @llvm.lifetime.start.p0(i64 64, ptr %10) #13
  %54 = getelementptr inbounds [157 x i8], ptr %7, i64 0, i64 0
  %55 = load ptr, ptr %5, align 8, !tbaa !22
  call void @_Z20ulocimp_getParent_77PKcR10UErrorCode(ptr dead_on_unwind writable sret(%"class.icu_77::CharString") align 8 %10, ptr noundef %54, ptr noundef nonnull align 4 dereferenceable(4) %55)
  %56 = invoke noundef signext i8 @_ZNK6icu_7710CharString7isEmptyEv(ptr noundef nonnull align 8 dereferenceable(60) %10)
          to label %57 unwind label %60

57:                                               ; preds = %53
  %58 = icmp ne i8 %56, 0
  br i1 %58, label %59, label %64

59:                                               ; preds = %57
  store i32 3, ptr %8, align 4
  br label %69

60:                                               ; preds = %64, %53
  %61 = landingpad { ptr, i32 }
          cleanup
  %62 = extractvalue { ptr, i32 } %61, 0
  store ptr %62, ptr %11, align 8
  %63 = extractvalue { ptr, i32 } %61, 1
  store i32 %63, ptr %12, align 4
  call void @_ZN6icu_7710CharStringD2Ev(ptr noundef nonnull align 8 dereferenceable(60) %10) #13
  call void @llvm.lifetime.end.p0(i64 64, ptr %10) #13
  call void @llvm.lifetime.end.p0(i64 4, ptr %9) #13
  call void @llvm.lifetime.end.p0(i64 157, ptr %7) #13
  call void @llvm.lifetime.end.p0(i64 8, ptr %6) #13
  br label %98

64:                                               ; preds = %57
  %65 = getelementptr inbounds [157 x i8], ptr %7, i64 0, i64 0
  %66 = load ptr, ptr %5, align 8, !tbaa !22
  %67 = invoke noundef i32 @_ZNK6icu_7710CharString7extractEPciR10UErrorCode(ptr noundef nonnull align 8 dereferenceable(60) %10, ptr noundef %65, i32 noundef 157, ptr noundef nonnull align 4 dereferenceable(4) %66)
          to label %68 unwind label %60

68:                                               ; preds = %64
  store i32 0, ptr %8, align 4
  br label %69

69:                                               ; preds = %68, %59
  call void @_ZN6icu_7710CharStringD2Ev(ptr noundef nonnull align 8 dereferenceable(60) %10) #13
  call void @llvm.lifetime.end.p0(i64 64, ptr %10) #13
  %70 = load i32, ptr %8, align 4
  switch i32 %70, label %103 [
    i32 0, label %71
    i32 3, label %74
  ]

71:                                               ; preds = %69
  br label %73

72:                                               ; preds = %45
  br label %74

73:                                               ; preds = %71
  br label %40, !llvm.loop !50

74:                                               ; preds = %72, %69, %40
  %75 = load i32, ptr %9, align 4, !tbaa !14
  %76 = icmp sle i32 %75, 0
  br i1 %76, label %86, label %77

77:                                               ; preds = %74
  %78 = load ptr, ptr @_ZN6icu_7712_GLOBAL__N_14dataE, align 8, !tbaa !27
  %79 = getelementptr inbounds nuw %"struct.icu_77::(anonymous namespace)::DayPeriodRulesData", ptr %78, i32 0, i32 1
  %80 = load ptr, ptr %79, align 8, !tbaa !29
  %81 = load i32, ptr %9, align 4, !tbaa !14
  %82 = sext i32 %81 to i64
  %83 = getelementptr inbounds %"class.icu_77::DayPeriodRules", ptr %80, i64 %82
  %84 = call noundef i32 @_ZNK6icu_7714DayPeriodRules19getDayPeriodForHourEi(ptr noundef nonnull align 4 dereferenceable(100) %83, i32 noundef 0)
  %85 = icmp eq i32 %84, -1
  br i1 %85, label %86, label %87

86:                                               ; preds = %77, %74
  store ptr null, ptr %3, align 8
  store i32 1, ptr %8, align 4
  br label %94

87:                                               ; preds = %77
  %88 = load ptr, ptr @_ZN6icu_7712_GLOBAL__N_14dataE, align 8, !tbaa !27
  %89 = getelementptr inbounds nuw %"struct.icu_77::(anonymous namespace)::DayPeriodRulesData", ptr %88, i32 0, i32 1
  %90 = load ptr, ptr %89, align 8, !tbaa !29
  %91 = load i32, ptr %9, align 4, !tbaa !14
  %92 = sext i32 %91 to i64
  %93 = getelementptr inbounds %"class.icu_77::DayPeriodRules", ptr %90, i64 %92
  store ptr %93, ptr %3, align 8
  store i32 1, ptr %8, align 4
  br label %94

94:                                               ; preds = %87, %86
  call void @llvm.lifetime.end.p0(i64 4, ptr %9) #13
  br label %95

95:                                               ; preds = %94, %37
  call void @llvm.lifetime.end.p0(i64 157, ptr %7) #13
  call void @llvm.lifetime.end.p0(i64 8, ptr %6) #13
  br label %96

96:                                               ; preds = %95, %18
  %97 = load ptr, ptr %3, align 8
  ret ptr %97

98:                                               ; preds = %60
  %99 = load ptr, ptr %11, align 8
  %100 = load i32, ptr %12, align 4
  %101 = insertvalue { ptr, i32 } poison, ptr %99, 0
  %102 = insertvalue { ptr, i32 } %101, i32 %100, 1
  resume { ptr, i32 } %102

103:                                              ; preds = %69
  unreachable
}