; Function Attrs: mustprogress uwtable
define noundef ptr @_ZN6icu_7714DayPeriodRules11getInstanceERKNS_6LocaleER10UErrorCode(ptr noundef nonnull align 8 dereferenceable(217) %0, ptr noundef nonnull align 4 dereferenceable(4) %1) local_unnamed_addr #1 align 2 personality ptr @__gxx_personality_v0 {
  %3 = alloca [157 x i8], align 16
  %4 = alloca %"class.icu_77::CharString", align 8
  %5 = load i32, ptr %1, align 4, !tbaa !13
  %6 = icmp slt i32 %5, 1
  br i1 %6, label %7, label %_ZN6icu_7713umtx_initOnceERNS_9UInitOnceEPFvR10UErrorCodeES3_.exit.thread

7:                                                ; preds = %2
  %8 = load atomic i32, ptr @_ZN6icu_7712_GLOBAL__N_18initOnceE acquire, align 4
  %.not11.i = icmp eq i32 %8, 2
  br i1 %.not11.i, label %13, label %9

9:                                                ; preds = %7
  %10 = tail call noundef signext i8 @_ZN6icu_7720umtx_initImplPreInitERNS_9UInitOnceE(ptr noundef nonnull align 4 dereferenceable(8) @_ZN6icu_7712_GLOBAL__N_18initOnceE)
  %.not12.i = icmp eq i8 %10, 0
  br i1 %.not12.i, label %13, label %11

11:                                               ; preds = %9
  tail call void @_ZN6icu_7714DayPeriodRules4loadER10UErrorCode(ptr noundef nonnull align 4 dereferenceable(4) %1)
  %12 = load i32, ptr %1, align 4, !tbaa !13
  store i32 %12, ptr getelementptr inbounds nuw (i8, ptr @_ZN6icu_7712_GLOBAL__N_18initOnceE, i64 4), align 4, !tbaa !27
  tail call void @_ZN6icu_7721umtx_initImplPostInitERNS_9UInitOnceE(ptr noundef nonnull align 4 dereferenceable(8) @_ZN6icu_7712_GLOBAL__N_18initOnceE)
  br label %_ZN6icu_7713umtx_initOnceERNS_9UInitOnceEPFvR10UErrorCodeES3_.exit

13:                                               ; preds = %9, %7
  %14 = load i32, ptr getelementptr inbounds nuw (i8, ptr @_ZN6icu_7712_GLOBAL__N_18initOnceE, i64 4), align 4, !tbaa !27
  %15 = icmp slt i32 %14, 1
  br i1 %15, label %_ZN6icu_7713umtx_initOnceERNS_9UInitOnceEPFvR10UErrorCodeES3_.exit, label %16

16:                                               ; preds = %13
  store i32 %14, ptr %1, align 4, !tbaa !13
  br label %_ZN6icu_7713umtx_initOnceERNS_9UInitOnceEPFvR10UErrorCodeES3_.exit.thread

_ZN6icu_7713umtx_initOnceERNS_9UInitOnceEPFvR10UErrorCodeES3_.exit: ; preds = %11, %13
  %.pr = load i32, ptr %1, align 4, !tbaa !13
  %17 = icmp slt i32 %.pr, 1
  br i1 %17, label %18, label %_ZN6icu_7713umtx_initOnceERNS_9UInitOnceEPFvR10UErrorCodeES3_.exit.thread

18:                                               ; preds = %_ZN6icu_7713umtx_initOnceERNS_9UInitOnceEPFvR10UErrorCodeES3_.exit
  %19 = tail call noundef ptr @_ZNK6icu_776Locale11getBaseNameEv(ptr noundef nonnull align 8 dereferenceable(217) %0)
  call void @llvm.lifetime.start.p0(i64 157, ptr nonnull %3) #21
  %20 = tail call i64 @strlen(ptr noundef nonnull dereferenceable(1) %19) #24
  %21 = icmp ult i64 %20, 157
  br i1 %21, label %22, label %28

22:                                               ; preds = %18
  %23 = call ptr @strcpy(ptr noundef nonnull dereferenceable(1) %3, ptr noundef nonnull dereferenceable(1) %19) #21
  %24 = load i8, ptr %3, align 16, !tbaa !31
  %25 = icmp eq i8 %24, 0
  br i1 %25, label %27, label %.critedge.preheader

.critedge.preheader:                              ; preds = %27, %22
  %26 = getelementptr inbounds nuw i8, ptr %4, i64 56
  br label %.critedge

27:                                               ; preds = %22
  call void @llvm.memcpy.p0.p0.i64(ptr noundef nonnull align 16 dereferenceable(5) %3, ptr noundef nonnull align 1 dereferenceable(5) @.str.3, i64 5, i1 false) #21
  br label %.critedge.preheader

28:                                               ; preds = %18
  store i32 15, ptr %1, align 4, !tbaa !13
  br label %.thread

.critedge:                                        ; preds = %.critedge.preheader, %39
  %29 = load ptr, ptr @_ZN6icu_7712_GLOBAL__N_14dataE, align 8, !tbaa !15
  %30 = load ptr, ptr %29, align 8, !tbaa !21
  %31 = call i32 @uhash_geti_77(ptr noundef %30, ptr noundef nonnull %3)
  %32 = icmp eq i32 %31, 0
  br i1 %32, label %33, label %41

33:                                               ; preds = %.critedge
  call void @llvm.lifetime.start.p0(i64 64, ptr nonnull %4) #21
  call void @_Z20ulocimp_getParent_77PKcR10UErrorCode(ptr dead_on_unwind nonnull writable sret(%"class.icu_77::CharString") align 8 %4, ptr noundef nonnull %3, ptr noundef nonnull align 4 dereferenceable(4) %1)
  %34 = load i32, ptr %26, align 8, !tbaa !32
  %.not = icmp eq i32 %34, 0
  br i1 %.not, label %39, label %37

35:                                               ; preds = %37
  %36 = landingpad { ptr, i32 }
          cleanup
  call void @_ZN6icu_7715MaybeStackArrayIcLi40EED1Ev(ptr noundef nonnull align 8 dereferenceable(60) %4) #21
  call void @llvm.lifetime.end.p0(i64 64, ptr nonnull %4) #21
  call void @llvm.lifetime.end.p0(i64 157, ptr nonnull %3) #21
  resume { ptr, i32 } %36

37:                                               ; preds = %33
  %38 = invoke noundef i32 @_ZNK6icu_7710CharString7extractEPciR10UErrorCode(ptr noundef nonnull align 8 dereferenceable(60) %4, ptr noundef nonnull %3, i32 noundef 157, ptr noundef nonnull align 4 dereferenceable(4) %1)
          to label %39 unwind label %35

39:                                               ; preds = %37, %33
  call void @_ZN6icu_7715MaybeStackArrayIcLi40EED1Ev(ptr noundef nonnull align 8 dereferenceable(60) %4) #21
  call void @llvm.lifetime.end.p0(i64 64, ptr nonnull %4) #21
  %40 = load i8, ptr %3, align 16
  %.not20 = icmp eq i8 %40, 0
  %or.cond = select i1 %.not, i1 true, i1 %.not20
  br i1 %or.cond, label %.thread, label %.critedge

41:                                               ; preds = %.critedge
  %42 = icmp slt i32 %31, 1
  br i1 %42, label %.thread, label %43

43:                                               ; preds = %41
  %44 = load ptr, ptr @_ZN6icu_7712_GLOBAL__N_14dataE, align 8, !tbaa !15
  %45 = getelementptr inbounds nuw i8, ptr %44, i64 8
  %46 = load ptr, ptr %45, align 8, !tbaa !17
  %47 = zext nneg i32 %31 to i64
  %48 = getelementptr inbounds nuw %"class.icu_77::DayPeriodRules", ptr %46, i64 %47
  %49 = getelementptr inbounds nuw i8, ptr %48, i64 4
  %50 = load i32, ptr %49, align 4, !tbaa !34
  %51 = icmp eq i32 %50, -1
  %spec.select = select i1 %51, ptr null, ptr %48
  br label %.thread

.thread:                                          ; preds = %39, %43, %41, %28
  %.1 = phi ptr [ null, %28 ], [ null, %41 ], [ %spec.select, %43 ], [ null, %39 ]
  call void @llvm.lifetime.end.p0(i64 157, ptr nonnull %3) #21
  br label %_ZN6icu_7713umtx_initOnceERNS_9UInitOnceEPFvR10UErrorCodeES3_.exit.thread

_ZN6icu_7713umtx_initOnceERNS_9UInitOnceEPFvR10UErrorCodeES3_.exit.thread: ; preds = %16, %2, %_ZN6icu_7713umtx_initOnceERNS_9UInitOnceEPFvR10UErrorCodeES3_.exit, %.thread
  %.0 = phi ptr [ %.1, %.thread ], [ null, %_ZN6icu_7713umtx_initOnceERNS_9UInitOnceEPFvR10UErrorCodeES3_.exit ], [ null, %2 ], [ null, %16 ]
  ret ptr %.0
}